; Function Attrs: nounwind uwtable
define ptr @l_Lean_IR_ExpandResetReuse_main(ptr noundef %0) local_unnamed_addr #1 {
  %2 = ptrtoint ptr %0 to i64
  %3 = and i64 %2, 1
  %.not.i29 = icmp eq i64 %3, 0
  br i1 %.not.i29, label %7, label %4

4:                                                ; preds = %1
  %5 = lshr i64 %2, 1
  %6 = trunc i64 %5 to i32
  br label %lean_obj_tag.exit

7:                                                ; preds = %1
  %8 = getelementptr i8, ptr %0, i64 4
  %.val.i = load i32, ptr %8, align 4
  %9 = lshr i32 %.val.i, 24
  br label %lean_obj_tag.exit

lean_obj_tag.exit:                                ; preds = %4, %7
  %.0.i30 = phi i32 [ %6, %4 ], [ %9, %7 ]
  %10 = icmp eq i32 %.0.i30, 0
  br i1 %10, label %11, label %80

11:                                               ; preds = %lean_obj_tag.exit
  %12 = getelementptr inbounds nuw i8, ptr %0, i64 32
  %13 = load ptr, ptr %12, align 8, !tbaa !11
  %14 = ptrtoint ptr %13 to i64
  %15 = and i64 %14, 1
  %.not = icmp eq i64 %15, 0
  br i1 %.not, label %16, label %lean_inc.exit26

16:                                               ; preds = %11
  %.val.i31 = load i32, ptr %13, align 4, !tbaa !4
  %17 = icmp sgt i32 %.val.i31, 0
  br i1 %17, label %18, label %20, !prof !13

18:                                               ; preds = %16
  %19 = add nuw i32 %.val.i31, 1
  store i32 %19, ptr %13, align 4, !tbaa !4
  br label %lean_inc.exit26

20:                                               ; preds = %16
  %.not.i32 = icmp eq i32 %.val.i31, 0
  br i1 %.not.i32, label %lean_inc.exit26, label %21

21:                                               ; preds = %20
  tail call void @lean_inc_ref_cold(ptr noundef nonnull %13) #4
  br label %lean_inc.exit26

lean_inc.exit26:                                  ; preds = %21, %20, %18, %11
  br i1 %.not.i29, label %22, label %lean_inc.exit25

22:                                               ; preds = %lean_inc.exit26
  %.val.i33 = load i32, ptr %0, align 4, !tbaa !4
  %23 = icmp sgt i32 %.val.i33, 0
  br i1 %23, label %24, label %26, !prof !13

24:                                               ; preds = %22
  %25 = add nuw i32 %.val.i33, 1
  store i32 %25, ptr %0, align 4, !tbaa !4
  br label %29

26:                                               ; preds = %22
  %.not.i34 = icmp eq i32 %.val.i33, 0
  br i1 %.not.i34, label %29, label %27

27:                                               ; preds = %26
  tail call void @lean_inc_ref_cold(ptr noundef nonnull %0) #4
  br label %29

lean_inc.exit25:                                  ; preds = %lean_inc.exit26
  %28 = tail call ptr @l_Lean_IR_ExpandResetReuse_mkProjMap(ptr noundef nonnull %0)
  br label %lean_inc.exit24

29:                                               ; preds = %27, %26, %24
  %30 = tail call ptr @l_Lean_IR_ExpandResetReuse_mkProjMap(ptr noundef nonnull %0)
  %.val.i36 = load i32, ptr %0, align 4, !tbaa !4
  %31 = icmp sgt i32 %.val.i36, 0
  br i1 %31, label %32, label %34, !prof !13

32:                                               ; preds = %29
  %33 = add nuw i32 %.val.i36, 1
  store i32 %33, ptr %0, align 4, !tbaa !4
  br label %lean_inc.exit24

34:                                               ; preds = %29
  %.not.i37 = icmp eq i32 %.val.i36, 0
  br i1 %.not.i37, label %lean_inc.exit24, label %35

35:                                               ; preds = %34
  tail call void @lean_inc_ref_cold(ptr noundef nonnull %0) #4
  br label %lean_inc.exit24

lean_inc.exit24:                                  ; preds = %35, %34, %32, %lean_inc.exit25
  %36 = phi ptr [ %28, %lean_inc.exit25 ], [ %30, %32 ], [ %30, %34 ], [ %30, %35 ]
  %37 = tail call ptr @l_Lean_IR_MaxIndex_collectDecl(ptr noundef nonnull %0, ptr noundef nonnull inttoptr (i64 1 to ptr)) #4
  %38 = ptrtoint ptr %37 to i64
  %39 = and i64 %38, 1
  %.not46 = icmp eq i64 %39, 0
  br i1 %.not46, label %50, label %40, !prof !15

40:                                               ; preds = %lean_inc.exit24
  %41 = lshr i64 %38, 1
  %42 = add nuw i64 %41, 1
  %43 = icmp sgt i64 %42, -1
  br i1 %43, label %44, label %48, !prof !13

44:                                               ; preds = %40
  %45 = shl nuw i64 %42, 1
  %46 = or disjoint i64 %45, 1
  %47 = inttoptr i64 %46 to ptr
  br label %lean_dec.exit23

48:                                               ; preds = %40
  %49 = tail call ptr @lean_big_usize_to_nat(i64 noundef range(i64 0, -1) %42) #4
  br label %lean_dec.exit23

50:                                               ; preds = %lean_inc.exit24
  %51 = tail call ptr @lean_nat_big_add(ptr noundef %37, ptr noundef nonnull inttoptr (i64 3 to ptr)) #4
  %52 = load i32, ptr %37, align 4, !tbaa !4
  %53 = icmp sgt i32 %52, 1
  br i1 %53, label %54, label %56, !prof !13

54:                                               ; preds = %50
  %55 = add nsw i32 %52, -1
  store i32 %55, ptr %37, align 4, !tbaa !4
  br label %lean_dec.exit23

56:                                               ; preds = %50
  %.not.i = icmp eq i32 %52, 0
  br i1 %.not.i, label %lean_dec.exit23, label %57

57:                                               ; preds = %56
  tail call void @lean_dec_ref_cold(ptr noundef nonnull %37) #4
  br label %lean_dec.exit23

lean_dec.exit23:                                  ; preds = %44, %48, %57, %56, %54
  %.0.i44 = phi ptr [ %51, %54 ], [ %51, %56 ], [ %51, %57 ], [ %49, %48 ], [ %47, %44 ]
  %58 = load ptr, ptr @l_Lean_IR_ExpandResetReuse_eraseProjIncFor___closed__1, align 8, !tbaa !11
  %59 = tail call ptr @l_Lean_IR_ExpandResetReuse_searchAndExpand(ptr noundef %13, ptr noundef %58, ptr noundef %36, ptr noundef %.0.i44)
  %60 = getelementptr inbounds nuw i8, ptr %59, i64 8
  %61 = load ptr, ptr %60, align 8, !tbaa !11
  %62 = ptrtoint ptr %61 to i64
  %63 = and i64 %62, 1
  %.not47 = icmp eq i64 %63, 0
  br i1 %.not47, label %64, label %lean_inc.exit

64:                                               ; preds = %lean_dec.exit23
  %.val.i40 = load i32, ptr %61, align 4, !tbaa !4
  %65 = icmp sgt i32 %.val.i40, 0
  br i1 %65, label %66, label %68, !prof !13

66:                                               ; preds = %64
  %67 = add nuw i32 %.val.i40, 1
  store i32 %67, ptr %61, align 4, !tbaa !4
  br label %lean_inc.exit

68:                                               ; preds = %64
  %.not.i41 = icmp eq i32 %.val.i40, 0
  br i1 %.not.i41, label %lean_inc.exit, label %69

69:                                               ; preds = %68
  tail call void @lean_inc_ref_cold(ptr noundef nonnull %61) #4
  br label %lean_inc.exit

lean_inc.exit:                                    ; preds = %69, %68, %66, %lean_dec.exit23
  %70 = ptrtoint ptr %59 to i64
  %71 = and i64 %70, 1
  %.not48 = icmp eq i64 %71, 0
  br i1 %.not48, label %72, label %lean_dec.exit

72:                                               ; preds = %lean_inc.exit
  %73 = load i32, ptr %59, align 4, !tbaa !4
  %74 = icmp sgt i32 %73, 1
  br i1 %74, label %75, label %77, !prof !13

75:                                               ; preds = %72
  %76 = add nsw i32 %73, -1
  store i32 %76, ptr %59, align 4, !tbaa !4
  br label %lean_dec.exit

77:                                               ; preds = %72
  %.not.i27 = icmp eq i32 %73, 0
  br i1 %.not.i27, label %lean_dec.exit, label %78

78:                                               ; preds = %77
  tail call void @lean_dec_ref_cold(ptr noundef nonnull %59) #4
  br label %lean_dec.exit

lean_dec.exit:                                    ; preds = %78, %77, %75, %lean_inc.exit
  %79 = tail call ptr @l_Lean_IR_Decl_updateBody_x21(ptr noundef nonnull %0, ptr noundef %61) #4
  br label %80

80:                                               ; preds = %lean_obj_tag.exit, %lean_dec.exit
  %.0 = phi ptr [ %79, %lean_dec.exit ], [ %0, %lean_obj_tag.exit ]
  ret ptr %.0
}